; ModuleID = '46/3249.c'
source_filename = "46/3249.c"
target datalayout = "e-m:e-p270:32:32-p271:32:32-p272:64:64-i64:64-f80:128-n8:16:32:64-S128"
target triple = "x86_64-pc-linux-gnu"

@.str = private unnamed_addr constant [7 x i8] c"%d %d\0A\00", align 1
@.str.1 = private unnamed_addr constant [3 x i8] c"%d\00", align 1
@.str.2 = private unnamed_addr constant [2 x i8] c"\0A\00", align 1
@.str.3 = private unnamed_addr constant [4 x i8] c"%d\0A\00", align 1

; Function Attrs: noinline nounwind uwtable
define dso_local i32 @main() #0 {
  %1 = alloca i32, align 4
  %2 = alloca [100 x [100 x i32]], align 16
  %3 = alloca i32, align 4
  %4 = alloca i32, align 4
  %5 = alloca i32, align 4
  %6 = alloca i32, align 4
  %7 = alloca i32, align 4
  %8 = alloca i32, align 4
  %9 = alloca i32, align 4
  %10 = alloca i32, align 4
  %11 = alloca i32, align 4
  store i32 0, i32* %1, align 4
  store i32 0, i32* %8, align 4
  store i32 -1, i32* %11, align 4
  %12 = call i32 (i8*, ...) @__isoc99_scanf(i8* getelementptr inbounds ([7 x i8], [7 x i8]* @.str, i64 0, i64 0), i32* %6, i32* %7)
  %13 = load i32, i32* %6, align 4
  store i32 %13, i32* %10, align 4
  %14 = load i32, i32* %7, align 4
  store i32 %14, i32* %9, align 4
  store i32 0, i32* %3, align 4
  br label %15

15:                                               ; preds = %37, %0
  %16 = load i32, i32* %3, align 4
  %17 = load i32, i32* %6, align 4
  %18 = icmp slt i32 %16, %17
  br i1 %18, label %19, label %40

19:                                               ; preds = %15
  store i32 0, i32* %4, align 4
  br label %20

20:                                               ; preds = %32, %19
  %21 = load i32, i32* %4, align 4
  %22 = load i32, i32* %7, align 4
  %23 = icmp slt i32 %21, %22
  br i1 %23, label %24, label %35

24:                                               ; preds = %20
  %25 = load i32, i32* %3, align 4
  %26 = sext i32 %25 to i64
  %27 = getelementptr inbounds [100 x [100 x i32]], [100 x [100 x i32]]* %2, i64 0, i64 %26
  %28 = load i32, i32* %4, align 4
  %29 = sext i32 %28 to i64
  %30 = getelementptr inbounds [100 x i32], [100 x i32]* %27, i64 0, i64 %29
  %31 = call i32 (i8*, ...) @__isoc99_scanf(i8* getelementptr inbounds ([3 x i8], [3 x i8]* @.str.1, i64 0, i64 0), i32* %30)
  br label %32

32:                                               ; preds = %24
  %33 = load i32, i32* %4, align 4
  %34 = add nsw i32 %33, 1
  store i32 %34, i32* %4, align 4
  br label %20

35:                                               ; preds = %20
  %36 = call i32 (i8*, ...) @__isoc99_scanf(i8* getelementptr inbounds ([2 x i8], [2 x i8]* @.str.2, i64 0, i64 0))
  br label %37

37:                                               ; preds = %35
  %38 = load i32, i32* %3, align 4
  %39 = add nsw i32 %38, 1
  store i32 %39, i32* %3, align 4
  br label %15

40:                                               ; preds = %15
  store i32 1, i32* %5, align 4
  br label %41

41:                                               ; preds = %177, %40
  %42 = load i32, i32* %5, align 4
  %43 = icmp slt i32 %42, 100000
  br i1 %43, label %44, label %180

44:                                               ; preds = %41
  %45 = load i32, i32* %11, align 4
  %46 = add nsw i32 %45, 1
  store i32 %46, i32* %11, align 4
  %47 = load i32, i32* %11, align 4
  store i32 %47, i32* %4, align 4
  br label %48

48:                                               ; preds = %65, %44
  %49 = load i32, i32* %4, align 4
  %50 = load i32, i32* %7, align 4
  %51 = load i32, i32* %11, align 4
  %52 = sub nsw i32 %50, %51
  %53 = icmp slt i32 %49, %52
  br i1 %53, label %54, label %68

54:                                               ; preds = %48
  %55 = load i32, i32* %11, align 4
  %56 = sext i32 %55 to i64
  %57 = getelementptr inbounds [100 x [100 x i32]], [100 x [100 x i32]]* %2, i64 0, i64 %56
  %58 = load i32, i32* %4, align 4
  %59 = sext i32 %58 to i64
  %60 = getelementptr inbounds [100 x i32], [100 x i32]* %57, i64 0, i64 %59
  %61 = load i32, i32* %60, align 4
  %62 = call i32 (i8*, ...) @printf(i8* getelementptr inbounds ([4 x i8], [4 x i8]* @.str.3, i64 0, i64 0), i32 %61)
  %63 = load i32, i32* %8, align 4
  %64 = add nsw i32 %63, 1
  store i32 %64, i32* %8, align 4
  br label %65

65:                                               ; preds = %54
  %66 = load i32, i32* %4, align 4
  %67 = add nsw i32 %66, 1
  store i32 %67, i32* %4, align 4
  br label %48

68:                                               ; preds = %48
  %69 = load i32, i32* %8, align 4
  %70 = load i32, i32* %9, align 4
  %71 = load i32, i32* %10, align 4
  %72 = mul nsw i32 %70, %71
  %73 = icmp eq i32 %69, %72
  br i1 %73, label %74, label %75

74:                                               ; preds = %68
  br label %180

75:                                               ; preds = %68
  %76 = load i32, i32* %11, align 4
  %77 = add nsw i32 %76, 1
  store i32 %77, i32* %3, align 4
  br label %78

78:                                               ; preds = %98, %75
  %79 = load i32, i32* %3, align 4
  %80 = load i32, i32* %6, align 4
  %81 = load i32, i32* %11, align 4
  %82 = sub nsw i32 %80, %81
  %83 = icmp slt i32 %79, %82
  br i1 %83, label %84, label %101

84:                                               ; preds = %78
  %85 = load i32, i32* %3, align 4
  %86 = sext i32 %85 to i64
  %87 = getelementptr inbounds [100 x [100 x i32]], [100 x [100 x i32]]* %2, i64 0, i64 %86
  %88 = load i32, i32* %7, align 4
  %89 = load i32, i32* %11, align 4
  %90 = sub nsw i32 %88, %89
  %91 = sub nsw i32 %90, 1
  %92 = sext i32 %91 to i64
  %93 = getelementptr inbounds [100 x i32], [100 x i32]* %87, i64 0, i64 %92
  %94 = load i32, i32* %93, align 4
  %95 = call i32 (i8*, ...) @printf(i8* getelementptr inbounds ([4 x i8], [4 x i8]* @.str.3, i64 0, i64 0), i32 %94)
  %96 = load i32, i32* %8, align 4
  %97 = add nsw i32 %96, 1
  store i32 %97, i32* %8, align 4
  br label %98

98:                                               ; preds = %84
  %99 = load i32, i32* %3, align 4
  %100 = add nsw i32 %99, 1
  store i32 %100, i32* %3, align 4
  br label %78

101:                                              ; preds = %78
  %102 = load i32, i32* %8, align 4
  %103 = load i32, i32* %9, align 4
  %104 = load i32, i32* %10, align 4
  %105 = mul nsw i32 %103, %104
  %106 = icmp eq i32 %102, %105
  br i1 %106, label %107, label %108

107:                                              ; preds = %101
  br label %180

108:                                              ; preds = %101
  %109 = load i32, i32* %11, align 4
  %110 = add nsw i32 2, %109
  store i32 %110, i32* %4, align 4
  br label %111

111:                                              ; preds = %134, %108
  %112 = load i32, i32* %4, align 4
  %113 = load i32, i32* %7, align 4
  %114 = add nsw i32 %113, 1
  %115 = load i32, i32* %11, align 4
  %116 = sub nsw i32 %114, %115
  %117 = icmp slt i32 %112, %116
  br i1 %117, label %118, label %137

118:                                              ; preds = %111
  %119 = load i32, i32* %6, align 4
  %120 = sub nsw i32 %119, 1
  %121 = load i32, i32* %11, align 4
  %122 = sub nsw i32 %120, %121
  %123 = sext i32 %122 to i64
  %124 = getelementptr inbounds [100 x [100 x i32]], [100 x [100 x i32]]* %2, i64 0, i64 %123
  %125 = load i32, i32* %7, align 4
  %126 = load i32, i32* %4, align 4
  %127 = sub nsw i32 %125, %126
  %128 = sext i32 %127 to i64
  %129 = getelementptr inbounds [100 x i32], [100 x i32]* %124, i64 0, i64 %128
  %130 = load i32, i32* %129, align 4
  %131 = call i32 (i8*, ...) @printf(i8* getelementptr inbounds ([4 x i8], [4 x i8]* @.str.3, i64 0, i64 0), i32 %130)
  %132 = load i32, i32* %8, align 4
  %133 = add nsw i32 %132, 1
  store i32 %133, i32* %8, align 4
  br label %134

134:                                              ; preds = %118
  %135 = load i32, i32* %4, align 4
  %136 = add nsw i32 %135, 1
  store i32 %136, i32* %4, align 4
  br label %111

137:                                              ; preds = %111
  %138 = load i32, i32* %8, align 4
  %139 = load i32, i32* %9, align 4
  %140 = load i32, i32* %10, align 4
  %141 = mul nsw i32 %139, %140
  %142 = icmp eq i32 %138, %141
  br i1 %142, label %143, label %144

143:                                              ; preds = %137
  br label %180

144:                                              ; preds = %137
  %145 = load i32, i32* %11, align 4
  %146 = add nsw i32 2, %145
  store i32 %146, i32* %3, align 4
  br label %147

147:                                              ; preds = %166, %144
  %148 = load i32, i32* %3, align 4
  %149 = load i32, i32* %6, align 4
  %150 = load i32, i32* %11, align 4
  %151 = sub nsw i32 %149, %150
  %152 = icmp slt i32 %148, %151
  br i1 %152, label %153, label %169

153:                                              ; preds = %147
  %154 = load i32, i32* %6, align 4
  %155 = load i32, i32* %3, align 4
  %156 = sub nsw i32 %154, %155
  %157 = sext i32 %156 to i64
  %158 = getelementptr inbounds [100 x [100 x i32]], [100 x [100 x i32]]* %2, i64 0, i64 %157
  %159 = load i32, i32* %11, align 4
  %160 = sext i32 %159 to i64
  %161 = getelementptr inbounds [100 x i32], [100 x i32]* %158, i64 0, i64 %160
  %162 = load i32, i32* %161, align 4
  %163 = call i32 (i8*, ...) @printf(i8* getelementptr inbounds ([4 x i8], [4 x i8]* @.str.3, i64 0, i64 0), i32 %162)
  %164 = load i32, i32* %8, align 4
  %165 = add nsw i32 %164, 1
  store i32 %165, i32* %8, align 4
  br label %166

166:                                              ; preds = %153
  %167 = load i32, i32* %3, align 4
  %168 = add nsw i32 %167, 1
  store i32 %168, i32* %3, align 4
  br label %147

169:                                              ; preds = %147
  %170 = load i32, i32* %8, align 4
  %171 = load i32, i32* %10, align 4
  %172 = load i32, i32* %9, align 4
  %173 = mul nsw i32 %171, %172
  %174 = icmp eq i32 %170, %173
  br i1 %174, label %175, label %176

175:                                              ; preds = %169
  br label %180

176:                                              ; preds = %169
  br label %177

177:                                              ; preds = %176
  %178 = load i32, i32* %5, align 4
  %179 = add nsw i32 %178, 1
  store i32 %179, i32* %5, align 4
  br label %41

180:                                              ; preds = %175, %143, %107, %74, %41
  ret i32 0
}

declare dso_local i32 @__isoc99_scanf(i8*, ...) #1

declare dso_local i32 @printf(i8*, ...) #1


!llvm.module.flags = !{!0}
!llvm.ident = !{!1}

!0 = !{i32 1, !"wchar_size", i32 4}
!1 = !{!"clang version 10.0.0-4ubuntu1 "}
